; ModuleID = '37/1723.c'
source_filename = "37/1723.c"
target datalayout = "e-m:e-p270:32:32-p271:32:32-p272:64:64-i64:64-f80:128-n8:16:32:64-S128"
target triple = "x86_64-pc-linux-gnu"

@.str = private unnamed_addr constant [3 x i8] c"%d\00", align 1
@.str.1 = private unnamed_addr constant [3 x i8] c"%s\00", align 1
@.str.2 = private unnamed_addr constant [4 x i8] c"%c\0A\00", align 1
@.str.3 = private unnamed_addr constant [4 x i8] c"no\0A\00", align 1

; Function Attrs: noinline nounwind uwtable
define dso_local i32 @main() #0 {
  %1 = alloca i32, align 4
  %2 = alloca i32, align 4
  %3 = alloca i32, align 4
  %4 = alloca i32, align 4
  %5 = alloca i32, align 4
  %6 = alloca [10 x i32], align 16
  %7 = alloca [10000 x i32], align 16
  %8 = alloca [10 x [10000 x i8]], align 16
  store i32 0, i32* %1, align 4
  %9 = call i32 (i8*, ...) @__isoc99_scanf(i8* getelementptr inbounds ([3 x i8], [3 x i8]* @.str, i64 0, i64 0), i32* %2)
  store i32 0, i32* %3, align 4
  br label %10

10:                                               ; preds = %30, %0
  %11 = load i32, i32* %3, align 4
  %12 = load i32, i32* %2, align 4
  %13 = sub nsw i32 %12, 1
  %14 = icmp sle i32 %11, %13
  br i1 %14, label %15, label %33

15:                                               ; preds = %10
  %16 = load i32, i32* %3, align 4
  %17 = sext i32 %16 to i64
  %18 = getelementptr inbounds [10 x [10000 x i8]], [10 x [10000 x i8]]* %8, i64 0, i64 %17
  %19 = getelementptr inbounds [10000 x i8], [10000 x i8]* %18, i64 0, i64 0
  %20 = call i32 (i8*, ...) @__isoc99_scanf(i8* getelementptr inbounds ([3 x i8], [3 x i8]* @.str.1, i64 0, i64 0), i8* %19)
  %21 = load i32, i32* %3, align 4
  %22 = sext i32 %21 to i64
  %23 = getelementptr inbounds [10 x [10000 x i8]], [10 x [10000 x i8]]* %8, i64 0, i64 %22
  %24 = getelementptr inbounds [10000 x i8], [10000 x i8]* %23, i64 0, i64 0
  %25 = call i64 @strlen(i8* %24) #4
  %26 = trunc i64 %25 to i32
  %27 = load i32, i32* %3, align 4
  %28 = sext i32 %27 to i64
  %29 = getelementptr inbounds [10 x i32], [10 x i32]* %6, i64 0, i64 %28
  store i32 %26, i32* %29, align 4
  br label %30

30:                                               ; preds = %15
  %31 = load i32, i32* %3, align 4
  %32 = add nsw i32 %31, 1
  store i32 %32, i32* %3, align 4
  br label %10

33:                                               ; preds = %10
  store i32 0, i32* %3, align 4
  br label %34

34:                                               ; preds = %130, %33
  %35 = load i32, i32* %3, align 4
  %36 = load i32, i32* %2, align 4
  %37 = sub nsw i32 %36, 1
  %38 = icmp sle i32 %35, %37
  br i1 %38, label %39, label %133

39:                                               ; preds = %34
  store i32 0, i32* %4, align 4
  br label %40

40:                                               ; preds = %107, %39
  %41 = load i32, i32* %4, align 4
  %42 = load i32, i32* %3, align 4
  %43 = sext i32 %42 to i64
  %44 = getelementptr inbounds [10 x i32], [10 x i32]* %6, i64 0, i64 %43
  %45 = load i32, i32* %44, align 4
  %46 = sub nsw i32 %45, 1
  %47 = icmp sle i32 %41, %46
  br i1 %47, label %48, label %110

48:                                               ; preds = %40
  %49 = getelementptr inbounds [10000 x i32], [10000 x i32]* %7, i64 0, i64 0
  %50 = bitcast i32* %49 to i8*
  call void @llvm.memset.p0i8.i64(i8* align 16 %50, i8 0, i64 40000, i1 false)
  store i32 0, i32* %5, align 4
  br label %51

51:                                               ; preds = %87, %48
  %52 = load i32, i32* %5, align 4
  %53 = load i32, i32* %3, align 4
  %54 = sext i32 %53 to i64
  %55 = getelementptr inbounds [10 x i32], [10 x i32]* %6, i64 0, i64 %54
  %56 = load i32, i32* %55, align 4
  %57 = sub nsw i32 %56, 1
  %58 = icmp sle i32 %52, %57
  br i1 %58, label %59, label %90

59:                                               ; preds = %51
  %60 = load i32, i32* %3, align 4
  %61 = sext i32 %60 to i64
  %62 = getelementptr inbounds [10 x [10000 x i8]], [10 x [10000 x i8]]* %8, i64 0, i64 %61
  %63 = load i32, i32* %4, align 4
  %64 = sext i32 %63 to i64
  %65 = getelementptr inbounds [10000 x i8], [10000 x i8]* %62, i64 0, i64 %64
  %66 = load i8, i8* %65, align 1
  %67 = sext i8 %66 to i32
  %68 = load i32, i32* %3, align 4
  %69 = sext i32 %68 to i64
  %70 = getelementptr inbounds [10 x [10000 x i8]], [10 x [10000 x i8]]* %8, i64 0, i64 %69
  %71 = load i32, i32* %5, align 4
  %72 = sext i32 %71 to i64
  %73 = getelementptr inbounds [10000 x i8], [10000 x i8]* %70, i64 0, i64 %72
  %74 = load i8, i8* %73, align 1
  %75 = sext i8 %74 to i32
  %76 = icmp eq i32 %67, %75
  br i1 %76, label %77, label %86

77:                                               ; preds = %59
  %78 = load i32, i32* %4, align 4
  %79 = sext i32 %78 to i64
  %80 = getelementptr inbounds [10000 x i32], [10000 x i32]* %7, i64 0, i64 %79
  %81 = load i32, i32* %80, align 4
  %82 = add nsw i32 %81, 1
  %83 = load i32, i32* %4, align 4
  %84 = sext i32 %83 to i64
  %85 = getelementptr inbounds [10000 x i32], [10000 x i32]* %7, i64 0, i64 %84
  store i32 %82, i32* %85, align 4
  br label %86

86:                                               ; preds = %77, %59
  br label %87

87:                                               ; preds = %86
  %88 = load i32, i32* %5, align 4
  %89 = add nsw i32 %88, 1
  store i32 %89, i32* %5, align 4
  br label %51

90:                                               ; preds = %51
  %91 = load i32, i32* %4, align 4
  %92 = sext i32 %91 to i64
  %93 = getelementptr inbounds [10000 x i32], [10000 x i32]* %7, i64 0, i64 %92
  %94 = load i32, i32* %93, align 4
  %95 = icmp eq i32 %94, 1
  br i1 %95, label %96, label %106

96:                                               ; preds = %90
  %97 = load i32, i32* %3, align 4
  %98 = sext i32 %97 to i64
  %99 = getelementptr inbounds [10 x [10000 x i8]], [10 x [10000 x i8]]* %8, i64 0, i64 %98
  %100 = load i32, i32* %4, align 4
  %101 = sext i32 %100 to i64
  %102 = getelementptr inbounds [10000 x i8], [10000 x i8]* %99, i64 0, i64 %101
  %103 = load i8, i8* %102, align 1
  %104 = sext i8 %103 to i32
  %105 = call i32 (i8*, ...) @printf(i8* getelementptr inbounds ([4 x i8], [4 x i8]* @.str.2, i64 0, i64 0), i32 %104)
  br label %110

106:                                              ; preds = %90
  br label %107

107:                                              ; preds = %106
  %108 = load i32, i32* %4, align 4
  %109 = add nsw i32 %108, 1
  store i32 %109, i32* %4, align 4
  br label %40

110:                                              ; preds = %96, %40
  %111 = load i32, i32* %4, align 4
  %112 = load i32, i32* %3, align 4
  %113 = sext i32 %112 to i64
  %114 = getelementptr inbounds [10 x i32], [10 x i32]* %6, i64 0, i64 %113
  %115 = load i32, i32* %114, align 4
  %116 = icmp eq i32 %111, %115
  br i1 %116, label %117, label %129

117:                                              ; preds = %110
  %118 = load i32, i32* %3, align 4
  %119 = sext i32 %118 to i64
  %120 = getelementptr inbounds [10 x i32], [10 x i32]* %6, i64 0, i64 %119
  %121 = load i32, i32* %120, align 4
  %122 = sub nsw i32 %121, 1
  %123 = sext i32 %122 to i64
  %124 = getelementptr inbounds [10000 x i32], [10000 x i32]* %7, i64 0, i64 %123
  %125 = load i32, i32* %124, align 4
  %126 = icmp ne i32 %125, 1
  br i1 %126, label %127, label %129

127:                                              ; preds = %117
  %128 = call i32 (i8*, ...) @printf(i8* getelementptr inbounds ([4 x i8], [4 x i8]* @.str.3, i64 0, i64 0))
  br label %129

129:                                              ; preds = %127, %117, %110
  br label %130

130:                                              ; preds = %129
  %131 = load i32, i32* %3, align 4
  %132 = add nsw i32 %131, 1
  store i32 %132, i32* %3, align 4
  br label %34

133:                                              ; preds = %34
  %134 = load i32, i32* %1, align 4
  ret i32 %134
}

declare dso_local i32 @__isoc99_scanf(i8*, ...) #1

; Function Attrs: nounwind readonly
declare dso_local i64 @strlen(i8*) #2

; Function Attrs: argmemonly nounwind willreturn
declare void @llvm.memset.p0i8.i64(i8* nocapture writeonly, i8, i64, i1 immarg) #3

declare dso_local i32 @printf(i8*, ...) #1


!llvm.module.flags = !{!0}
!llvm.ident = !{!1}

!0 = !{i32 1, !"wchar_size", i32 4}
!1 = !{!"clang version 10.0.0-4ubuntu1 "}
